; Function Attrs: mustprogress noreturn uwtable
define void @_ZN5boost7process2v26detail14do_throw_errorERKNS_6system10error_codeEPKc(ptr noundef nonnull align 8 dereferenceable(24) %0, ptr noundef %1) local_unnamed_addr #3 personality ptr @__gxx_personality_v0 {
  %3 = alloca %"class.boost::system::system_error", align 8
  call void @llvm.lifetime.start.p0(i64 40, ptr nonnull %3) #22
  call void @_ZN5boost6system12system_errorC2ERKNS0_10error_codeEPKc(ptr noundef nonnull align 8 dereferenceable(40) %3, ptr noundef nonnull align 8 dereferenceable(24) %0, ptr noundef %1)
  invoke void @_ZN5boost15throw_exceptionINS_6system12system_errorEEEvRKT_(ptr noundef nonnull align 8 dereferenceable(40) %3) #25
          to label %4 unwind label %5

4:                                                ; preds = %2
  unreachable

5:                                                ; preds = %2
  %6 = landingpad { ptr, i32 }
          cleanup
  call void @_ZNSt13runtime_errorD2Ev(ptr noundef nonnull align 8 dereferenceable(40) %3) #22
  call void @llvm.lifetime.end.p0(i64 40, ptr nonnull %3) #22
  resume { ptr, i32 } %6
}